(iStatusPrefs
StatusPrefs
p1
(dp2
S'sections'
p3
(lp4
(S'netbox_0'
p5
S'netbox'
p6
S'Boxes down'
p7
(dp8
S'state'
(lp9
S'n'
asS'orgid'
(lp10
S'all_selected_tkn'
p11
asS'catid'
(lp12
S'all_selected_tkn'
p13
asta(S'netbox_1'
p14
g6
S'Boxes in shadow'
p15
(dp16
S'state'
(lp17
S's'
asS'orgid'
(lp18
S'all_selected_tkn'
p19
asS'catid'
(lp20
S'all_selected_tkn'
p21
asta(S'module_0'
p22
S'module'
p23
S'Modules down'
p24
(dp25
S'state'
(lp26
S'all_selected_tkn'
p27
asS'orgid'
(lp28
S'all_selected_tkn'
p29
asS'catid'
(lp30
S'all_selected_tkn'
p31
asta(S'service_0'
p32
S'service'
p33
S'Services down'
p34
(dp35
S'state'
(lp36
S'all_selected_tkn'
p37
asS'handler'
(lp38
S'all_selected_tkn'
p39
asS'orgid'
(lp40
S'all_selected_tkn'
p41
astasb.